target datalayout = "e-m:e-p270:32:32-p271:32:32-p272:64:64-i64:64-i128:128-f80:128-n8:16:32:64-S128"
target triple = "x86_64-pc-linux-gnu"

%struct.DdManager = type { %struct.DdNode, ptr, ptr, ptr, ptr, ptr, ptr, ptr, i32, i32, double, double, double, i32, i32, i32, i32, i32, i32, ptr, ptr, %struct.DdSubtable, i32, i32, i32, i32, i32, i32, i32, double, i32, i32, i32, ptr, i64, double, i32, ptr, ptr, ptr, ptr, ptr, ptr, ptr, i32, ptr, ptr, ptr, ptr, ptr, ptr, i32, i32, i32, double, i32, i32, i32, i32, double, double, i32, i32, i32, i32, i32, i32, i32, i32, i32, ptr, ptr, i32, i32, i32, i32, i32, i32, ptr, ptr, ptr, ptr, ptr, ptr, ptr, ptr, i32, i64, i64, i64, i32, i64, i64, double, double, double, double, double, double, i32, ptr, ptr, i64 }
%struct.DdNode = type { i32, i32, ptr, %union.anon, i64 }
%union.anon = type { %struct.DdChildren }
%struct.DdChildren = type { ptr, ptr }
%struct.DdSubtable = type { ptr, i32, i32, i32, i32, i32, i32, i32, i32, i32, i32, i32 }
%struct.DdTlcInfo = type { ptr, ptr, i32 }

@.str = private unnamed_addr constant [6 x i8] c"%s%s\0A\00", align 1
@.str.1 = private unnamed_addr constant [2 x i8] c"~\00", align 1
@.str.2 = private unnamed_addr constant [2 x i8] c" \00", align 1
@.str.3 = private unnamed_addr constant [13 x i8] c"%s%s | %s%s\0A\00", align 1
@.str.4 = private unnamed_addr constant [6 x i8] c"%s%d\0A\00", align 1
@.str.5 = private unnamed_addr constant [13 x i8] c"%s%d | %s%d\0A\00", align 1

; Function Attrs: nounwind uwtable
define void @Cudd_tlcInfoFree(ptr noundef %0) #0 {
  %2 = alloca ptr, align 8
  store ptr %0, ptr %2, align 8
  %3 = load ptr, ptr %2, align 8
  %4 = getelementptr inbounds %struct.DdTlcInfo, ptr %3, i32 0, i32 0
  %5 = load ptr, ptr %4, align 8
  %6 = icmp ne ptr %5, null
  br i1 %6, label %7, label %20

7:                                                ; preds = %1
  %8 = load ptr, ptr %2, align 8
  %9 = getelementptr inbounds %struct.DdTlcInfo, ptr %8, i32 0, i32 0
  %10 = load ptr, ptr %9, align 8
  %11 = icmp ne ptr %10, null
  br i1 %11, label %12, label %18

12:                                               ; preds = %7
  %13 = load ptr, ptr %2, align 8
  %14 = getelementptr inbounds %struct.DdTlcInfo, ptr %13, i32 0, i32 0
  %15 = load ptr, ptr %14, align 8
  call void @free(ptr noundef %15) #6
  %16 = load ptr, ptr %2, align 8
  %17 = getelementptr inbounds %struct.DdTlcInfo, ptr %16, i32 0, i32 0
  store ptr null, ptr %17, align 8
  br label %19

18:                                               ; preds = %7
  br label %19

19:                                               ; preds = %18, %12
  br label %20

20:                                               ; preds = %19, %1
  %21 = load ptr, ptr %2, align 8
  %22 = getelementptr inbounds %struct.DdTlcInfo, ptr %21, i32 0, i32 1
  %23 = load ptr, ptr %22, align 8
  %24 = icmp ne ptr %23, null
  br i1 %24, label %25, label %38

25:                                               ; preds = %20
  %26 = load ptr, ptr %2, align 8
  %27 = getelementptr inbounds %struct.DdTlcInfo, ptr %26, i32 0, i32 1
  %28 = load ptr, ptr %27, align 8
  %29 = icmp ne ptr %28, null
  br i1 %29, label %30, label %36

30:                                               ; preds = %25
  %31 = load ptr, ptr %2, align 8
  %32 = getelementptr inbounds %struct.DdTlcInfo, ptr %31, i32 0, i32 1
  %33 = load ptr, ptr %32, align 8
  call void @free(ptr noundef %33) #6
  %34 = load ptr, ptr %2, align 8
  %35 = getelementptr inbounds %struct.DdTlcInfo, ptr %34, i32 0, i32 1
  store ptr null, ptr %35, align 8
  br label %37

36:                                               ; preds = %25
  br label %37

37:                                               ; preds = %36, %30
  br label %38

38:                                               ; preds = %37, %20
  %39 = load ptr, ptr %2, align 8
  %40 = icmp ne ptr %39, null
  br i1 %40, label %41, label %43

41:                                               ; preds = %38
  %42 = load ptr, ptr %2, align 8
  call void @free(ptr noundef %42) #6
  store ptr null, ptr %2, align 8
  br label %44

43:                                               ; preds = %38
  br label %44

44:                                               ; preds = %43, %41
  ret void
}

; Function Attrs: nounwind uwtable
define internal signext i16 @bitVectorRead(ptr noundef %0, i32 noundef %1) #0 {
  %3 = alloca i16, align 2
  %4 = alloca ptr, align 8
  %5 = alloca i32, align 4
  %6 = alloca i32, align 4
  %7 = alloca i32, align 4
  %8 = alloca i16, align 2
  store ptr %0, ptr %4, align 8
  store i32 %1, ptr %5, align 4
  %9 = load ptr, ptr %4, align 8
  %10 = icmp eq ptr %9, null
  br i1 %10, label %11, label %12

11:                                               ; preds = %2
  store i16 0, ptr %3, align 2
  br label %28

12:                                               ; preds = %2
  %13 = load i32, ptr %5, align 4
  %14 = ashr i32 %13, 6
  store i32 %14, ptr %6, align 4
  %15 = load i32, ptr %5, align 4
  %16 = and i32 %15, 63
  store i32 %16, ptr %7, align 4
  %17 = load ptr, ptr %4, align 8
  %18 = load i32, ptr %6, align 4
  %19 = sext i32 %18 to i64
  %20 = getelementptr inbounds i64, ptr %17, i64 %19
  %21 = load i64, ptr %20, align 8
  %22 = load i32, ptr %7, align 4
  %23 = zext i32 %22 to i64
  %24 = ashr i64 %21, %23
  %25 = and i64 %24, 1
  %26 = trunc i64 %25 to i16
  store i16 %26, ptr %8, align 2
  %27 = load i16, ptr %8, align 2
  store i16 %27, ptr %3, align 2
  br label %28

28:                                               ; preds = %12, %11
  %29 = load i16, ptr %3, align 2
  ret i16 %29
}

; Function Attrs: nounwind uwtable
define internal i32 @sentinelp(i32 noundef %0, i32 noundef %1) #0 {
  %3 = alloca i32, align 4
  %4 = alloca i32, align 4
  store i32 %0, ptr %3, align 4
  store i32 %1, ptr %4, align 4
  %5 = load i32, ptr %3, align 4
  %6 = icmp eq i32 %5, 0
  br i1 %6, label %7, label %10

7:                                                ; preds = %2
  %8 = load i32, ptr %4, align 4
  %9 = icmp eq i32 %8, 0
  br label %10

10:                                               ; preds = %7, %2
  %11 = phi i1 [ false, %2 ], [ %9, %7 ]
  %12 = zext i1 %11 to i32
  ret i32 %12
}

; Function Attrs: nounwind uwtable
define i32 @Cudd_PrintTwoLiteralClauses(ptr noundef %0, ptr noundef %1, ptr noundef %2, ptr noundef %3) #0 {
  %5 = alloca i32, align 4
  %6 = alloca ptr, align 8
  %7 = alloca ptr, align 8
  %8 = alloca ptr, align 8
  %9 = alloca ptr, align 8
  %10 = alloca ptr, align 8
  %11 = alloca ptr, align 8
  %12 = alloca i32, align 4
  %13 = alloca ptr, align 8
  %14 = alloca ptr, align 8
  store ptr %0, ptr %6, align 8
  store ptr %1, ptr %7, align 8
  store ptr %2, ptr %8, align 8
  store ptr %3, ptr %9, align 8
  %15 = load ptr, ptr %6, align 8
  %16 = load ptr, ptr %7, align 8
  %17 = call ptr @Cudd_FindTwoLiteralClauses(ptr noundef %15, ptr noundef %16)
  store ptr %17, ptr %13, align 8
  %18 = load ptr, ptr %9, align 8
  %19 = icmp eq ptr %18, null
  br i1 %19, label %20, label %24

20:                                               ; preds = %4
  %21 = load ptr, ptr %6, align 8
  %22 = getelementptr inbounds %struct.DdManager, ptr %21, i32 0, i32 84
  %23 = load ptr, ptr %22, align 8
  br label %26

24:                                               ; preds = %4
  %25 = load ptr, ptr %9, align 8
  br label %26

26:                                               ; preds = %24, %20
  %27 = phi ptr [ %23, %20 ], [ %25, %24 ]
  store ptr %27, ptr %14, align 8
  %28 = load ptr, ptr %13, align 8
  %29 = icmp eq ptr %28, null
  br i1 %29, label %30, label %31

30:                                               ; preds = %26
  store i32 0, ptr %5, align 4
  br label %174

31:                                               ; preds = %26
  %32 = load ptr, ptr %13, align 8
  %33 = getelementptr inbounds %struct.DdTlcInfo, ptr %32, i32 0, i32 0
  %34 = load ptr, ptr %33, align 8
  store ptr %34, ptr %10, align 8
  %35 = load ptr, ptr %13, align 8
  %36 = getelementptr inbounds %struct.DdTlcInfo, ptr %35, i32 0, i32 1
  %37 = load ptr, ptr %36, align 8
  store ptr %37, ptr %11, align 8
  store i32 0, ptr %12, align 4
  br label %38

38:                                               ; preds = %169, %31
  %39 = load ptr, ptr %10, align 8
  %40 = load i32, ptr %12, align 4
  %41 = sext i32 %40 to i64
  %42 = getelementptr inbounds i32, ptr %39, i64 %41
  %43 = load i32, ptr %42, align 4
  %44 = load ptr, ptr %10, align 8
  %45 = load i32, ptr %12, align 4
  %46 = add nsw i32 %45, 1
  %47 = sext i32 %46 to i64
  %48 = getelementptr inbounds i32, ptr %44, i64 %47
  %49 = load i32, ptr %48, align 4
  %50 = call i32 @sentinelp(i32 noundef %43, i32 noundef %49)
  %51 = icmp ne i32 %50, 0
  %52 = xor i1 %51, true
  br i1 %52, label %53, label %172

53:                                               ; preds = %38
  %54 = load ptr, ptr %8, align 8
  %55 = icmp ne ptr %54, null
  br i1 %55, label %56, label %118

56:                                               ; preds = %53
  %57 = load ptr, ptr %10, align 8
  %58 = load i32, ptr %12, align 4
  %59 = add nsw i32 %58, 1
  %60 = sext i32 %59 to i64
  %61 = getelementptr inbounds i32, ptr %57, i64 %60
  %62 = load i32, ptr %61, align 4
  %63 = icmp eq i32 %62, 2147483647
  br i1 %63, label %64, label %82

64:                                               ; preds = %56
  %65 = load ptr, ptr %14, align 8
  %66 = load ptr, ptr %11, align 8
  %67 = load i32, ptr %12, align 4
  %68 = call signext i16 @bitVectorRead(ptr noundef %66, i32 noundef %67)
  %69 = sext i16 %68 to i32
  %70 = icmp ne i32 %69, 0
  %71 = select i1 %70, ptr @.str.1, ptr @.str.2
  %72 = load ptr, ptr %8, align 8
  %73 = load ptr, ptr %10, align 8
  %74 = load i32, ptr %12, align 4
  %75 = sext i32 %74 to i64
  %76 = getelementptr inbounds i32, ptr %73, i64 %75
  %77 = load i32, ptr %76, align 4
  %78 = zext i32 %77 to i64
  %79 = getelementptr inbounds ptr, ptr %72, i64 %78
  %80 = load ptr, ptr %79, align 8
  %81 = call i32 (ptr, ptr, ...) @fprintf(ptr noundef %65, ptr noundef @.str, ptr noundef %71, ptr noundef %80) #6
  br label %117

82:                                               ; preds = %56
  %83 = load ptr, ptr %14, align 8
  %84 = load ptr, ptr %11, align 8
  %85 = load i32, ptr %12, align 4
  %86 = call signext i16 @bitVectorRead(ptr noundef %84, i32 noundef %85)
  %87 = sext i16 %86 to i32
  %88 = icmp ne i32 %87, 0
  %89 = select i1 %88, ptr @.str.1, ptr @.str.2
  %90 = load ptr, ptr %8, align 8
  %91 = load ptr, ptr %10, align 8
  %92 = load i32, ptr %12, align 4
  %93 = sext i32 %92 to i64
  %94 = getelementptr inbounds i32, ptr %91, i64 %93
  %95 = load i32, ptr %94, align 4
  %96 = zext i32 %95 to i64
  %97 = getelementptr inbounds ptr, ptr %90, i64 %96
  %98 = load ptr, ptr %97, align 8
  %99 = load ptr, ptr %11, align 8
  %100 = load i32, ptr %12, align 4
  %101 = add nsw i32 %100, 1
  %102 = call signext i16 @bitVectorRead(ptr noundef %99, i32 noundef %101)
  %103 = sext i16 %102 to i32
  %104 = icmp ne i32 %103, 0
  %105 = select i1 %104, ptr @.str.1, ptr @.str.2
  %106 = load ptr, ptr %8, align 8
  %107 = load ptr, ptr %10, align 8
  %108 = load i32, ptr %12, align 4
  %109 = add nsw i32 %108, 1
  %110 = sext i32 %109 to i64
  %111 = getelementptr inbounds i32, ptr %107, i64 %110
  %112 = load i32, ptr %111, align 4
  %113 = zext i32 %112 to i64
  %114 = getelementptr inbounds ptr, ptr %106, i64 %113
  %115 = load ptr, ptr %114, align 8
  %116 = call i32 (ptr, ptr, ...) @fprintf(ptr noundef %83, ptr noundef @.str.3, ptr noundef %89, ptr noundef %98, ptr noundef %105, ptr noundef %115) #6
  br label %117

117:                                              ; preds = %82, %64
  br label %168

118:                                              ; preds = %53
  %119 = load ptr, ptr %10, align 8
  %120 = load i32, ptr %12, align 4
  %121 = add nsw i32 %120, 1
  %122 = sext i32 %121 to i64
  %123 = getelementptr inbounds i32, ptr %119, i64 %122
  %124 = load i32, ptr %123, align 4
  %125 = icmp eq i32 %124, 2147483647
  br i1 %125, label %126, label %140

126:                                              ; preds = %118
  %127 = load ptr, ptr %14, align 8
  %128 = load ptr, ptr %11, align 8
  %129 = load i32, ptr %12, align 4
  %130 = call signext i16 @bitVectorRead(ptr noundef %128, i32 noundef %129)
  %131 = sext i16 %130 to i32
  %132 = icmp ne i32 %131, 0
  %133 = select i1 %132, ptr @.str.1, ptr @.str.2
  %134 = load ptr, ptr %10, align 8
  %135 = load i32, ptr %12, align 4
  %136 = sext i32 %135 to i64
  %137 = getelementptr inbounds i32, ptr %134, i64 %136
  %138 = load i32, ptr %137, align 4
  %139 = call i32 (ptr, ptr, ...) @fprintf(ptr noundef %127, ptr noundef @.str.4, ptr noundef %133, i32 noundef %138) #6
  br label %167

140:                                              ; preds = %118
  %141 = load ptr, ptr %14, align 8
  %142 = load ptr, ptr %11, align 8
  %143 = load i32, ptr %12, align 4
  %144 = call signext i16 @bitVectorRead(ptr noundef %142, i32 noundef %143)
  %145 = sext i16 %144 to i32
  %146 = icmp ne i32 %145, 0
  %147 = select i1 %146, ptr @.str.1, ptr @.str.2
  %148 = load ptr, ptr %10, align 8
  %149 = load i32, ptr %12, align 4
  %150 = sext i32 %149 to i64
  %151 = getelementptr inbounds i32, ptr %148, i64 %150
  %152 = load i32, ptr %151, align 4
  %153 = load ptr, ptr %11, align 8
  %154 = load i32, ptr %12, align 4
  %155 = add nsw i32 %154, 1
  %156 = call signext i16 @bitVectorRead(ptr noundef %153, i32 noundef %155)
  %157 = sext i16 %156 to i32
  %158 = icmp ne i32 %157, 0
  %159 = select i1 %158, ptr @.str.1, ptr @.str.2
  %160 = load ptr, ptr %10, align 8
  %161 = load i32, ptr %12, align 4
  %162 = add nsw i32 %161, 1
  %163 = sext i32 %162 to i64
  %164 = getelementptr inbounds i32, ptr %160, i64 %163
  %165 = load i32, ptr %164, align 4
  %166 = call i32 (ptr, ptr, ...) @fprintf(ptr noundef %141, ptr noundef @.str.5, ptr noundef %147, i32 noundef %152, ptr noundef %159, i32 noundef %165) #6
  br label %167

167:                                              ; preds = %140, %126
  br label %168

168:                                              ; preds = %167, %117
  br label %169

169:                                              ; preds = %168
  %170 = load i32, ptr %12, align 4
  %171 = add nsw i32 %170, 2
  store i32 %171, ptr %12, align 4
  br label %38, !llvm.loop !8

172:                                              ; preds = %38
  %173 = load ptr, ptr %13, align 8
  call void @Cudd_tlcInfoFree(ptr noundef %173)
  store i32 1, ptr %5, align 4
  br label %174

174:                                              ; preds = %172, %30
  %175 = load i32, ptr %5, align 4
  ret i32 %175
}